(dp0
Vmessages
p1
(lp2
VCould not find any messages containing line information.
p3
aVPlease take a look at the log file egg_report_DRAFT.latexmk.log to find the source of the problem.
p4
asVfiles_with_guttermarks
p5
c__builtin__
set
p6
((lp7
V/Users/surya/Documents/physics/egg/./egg_report_DRAFT.tex
p8
atp9
Rp10
s.